; Function Attrs: nounwind uwtable
define internal range(i32 0, 2) i32 @zend_compare_file_handles(ptr noundef readonly captures(none) %0, ptr noundef readonly captures(none) %1) #0 {
  %3 = getelementptr inbounds nuw i8, ptr %0, i64 56
  %4 = load i8, ptr %3, align 8, !tbaa !4
  %5 = getelementptr inbounds nuw i8, ptr %1, i64 56
  %6 = load i8, ptr %5, align 8, !tbaa !4
  %.not = icmp eq i8 %4, %6
  br i1 %.not, label %7, label %zend_string_equals.exit

7:                                                ; preds = %2
  switch i8 %4, label %zend_string_equals.exit [
    i8 0, label %8
    i8 1, label %22
    i8 2, label %26
  ]

8:                                                ; preds = %7
  %9 = getelementptr inbounds nuw i8, ptr %0, i64 40
  %10 = load ptr, ptr %9, align 8, !tbaa !20
  %11 = getelementptr inbounds nuw i8, ptr %1, i64 40
  %12 = load ptr, ptr %11, align 8, !tbaa !20
  %13 = icmp eq ptr %10, %12
  br i1 %13, label %zend_string_equals.exit, label %14

14:                                               ; preds = %8
  %15 = getelementptr inbounds nuw i8, ptr %10, i64 16
  %16 = load i64, ptr %15, align 8, !tbaa !19
  %17 = getelementptr inbounds nuw i8, ptr %12, i64 16
  %18 = load i64, ptr %17, align 8, !tbaa !19
  %19 = icmp eq i64 %16, %18
  br i1 %19, label %20, label %zend_string_equals.exit

20:                                               ; preds = %14
  %21 = tail call zeroext i1 @zend_string_equal_val(ptr noundef nonnull %10, ptr noundef nonnull %12) #16
  br label %zend_string_equals.exit

22:                                               ; preds = %7
  %23 = load ptr, ptr %0, align 8, !tbaa !13
  %24 = load ptr, ptr %1, align 8, !tbaa !13
  %25 = icmp eq ptr %23, %24
  br label %zend_string_equals.exit

26:                                               ; preds = %7
  %27 = load ptr, ptr %0, align 8, !tbaa !13
  %28 = load ptr, ptr %1, align 8, !tbaa !13
  %29 = icmp eq ptr %27, %28
  br label %zend_string_equals.exit

zend_string_equals.exit:                          ; preds = %8, %14, %20, %7, %2, %26, %22
  %.0.shrunk = phi i1 [ %29, %26 ], [ %25, %22 ], [ false, %2 ], [ false, %7 ], [ true, %8 ], [ false, %14 ], [ %21, %20 ]
  %.0 = zext i1 %.0.shrunk to i32
  ret i32 %.0
}